target datalayout = "e-m:e-p270:32:32-p271:32:32-p272:64:64-i64:64-i128:128-f80:128-n8:16:32:64-S128"
target triple = "x86_64-pc-linux-gnu"

%"class.i18n::phonenumbers::UnicodeText::const_iterator" = type { ptr }

; Function Attrs: mustprogress nounwind uwtable
define dso_local noundef i32 @_ZNK4i18n12phonenumbers11UnicodeText14const_iteratordeEv(ptr noundef nonnull align 8 dereferenceable(8) %0) #1 align 2 {
  %2 = alloca i32, align 4
  %3 = alloca ptr, align 8
  %4 = alloca i8, align 1
  %5 = alloca i32, align 4
  %6 = alloca i8, align 1
  %7 = alloca i8, align 1
  %8 = alloca i8, align 1
  store ptr %0, ptr %3, align 8, !tbaa !4
  %9 = load ptr, ptr %3, align 8
  call void @llvm.lifetime.start.p0(i64 1, ptr %4) #15
  %10 = getelementptr inbounds nuw %"class.i18n::phonenumbers::UnicodeText::const_iterator", ptr %9, i32 0, i32 0
  %11 = load ptr, ptr %10, align 8, !tbaa !9
  %12 = getelementptr inbounds i8, ptr %11, i64 0
  %13 = load i8, ptr %12, align 1, !tbaa !15
  store i8 %13, ptr %4, align 1, !tbaa !15
  %14 = load i8, ptr %4, align 1, !tbaa !15
  %15 = zext i8 %14 to i32
  %16 = icmp slt i32 %15, 128
  br i1 %16, label %17, label %20

17:                                               ; preds = %1
  %18 = load i8, ptr %4, align 1, !tbaa !15
  %19 = zext i8 %18 to i32
  store i32 %19, ptr %2, align 4
  store i32 1, ptr %5, align 4
  br label %84

20:                                               ; preds = %1
  call void @llvm.lifetime.start.p0(i64 1, ptr %6) #15
  %21 = getelementptr inbounds nuw %"class.i18n::phonenumbers::UnicodeText::const_iterator", ptr %9, i32 0, i32 0
  %22 = load ptr, ptr %21, align 8, !tbaa !9
  %23 = getelementptr inbounds i8, ptr %22, i64 1
  %24 = load i8, ptr %23, align 1, !tbaa !15
  store i8 %24, ptr %6, align 1, !tbaa !15
  %25 = load i8, ptr %4, align 1, !tbaa !15
  %26 = zext i8 %25 to i32
  %27 = icmp slt i32 %26, 224
  br i1 %27, label %28, label %37

28:                                               ; preds = %20
  %29 = load i8, ptr %4, align 1, !tbaa !15
  %30 = zext i8 %29 to i32
  %31 = and i32 %30, 31
  %32 = shl i32 %31, 6
  %33 = load i8, ptr %6, align 1, !tbaa !15
  %34 = zext i8 %33 to i32
  %35 = and i32 %34, 63
  %36 = or i32 %32, %35
  store i32 %36, ptr %2, align 4
  store i32 1, ptr %5, align 4
  br label %83

37:                                               ; preds = %20
  call void @llvm.lifetime.start.p0(i64 1, ptr %7) #15
  %38 = getelementptr inbounds nuw %"class.i18n::phonenumbers::UnicodeText::const_iterator", ptr %9, i32 0, i32 0
  %39 = load ptr, ptr %38, align 8, !tbaa !9
  %40 = getelementptr inbounds i8, ptr %39, i64 2
  %41 = load i8, ptr %40, align 1, !tbaa !15
  store i8 %41, ptr %7, align 1, !tbaa !15
  %42 = load i8, ptr %4, align 1, !tbaa !15
  %43 = zext i8 %42 to i32
  %44 = icmp slt i32 %43, 240
  br i1 %44, label %45, label %59

45:                                               ; preds = %37
  %46 = load i8, ptr %4, align 1, !tbaa !15
  %47 = zext i8 %46 to i32
  %48 = and i32 %47, 15
  %49 = shl i32 %48, 12
  %50 = load i8, ptr %6, align 1, !tbaa !15
  %51 = zext i8 %50 to i32
  %52 = and i32 %51, 63
  %53 = shl i32 %52, 6
  %54 = or i32 %49, %53
  %55 = load i8, ptr %7, align 1, !tbaa !15
  %56 = zext i8 %55 to i32
  %57 = and i32 %56, 63
  %58 = or i32 %54, %57
  store i32 %58, ptr %2, align 4
  store i32 1, ptr %5, align 4
  br label %82

59:                                               ; preds = %37
  call void @llvm.lifetime.start.p0(i64 1, ptr %8) #15
  %60 = getelementptr inbounds nuw %"class.i18n::phonenumbers::UnicodeText::const_iterator", ptr %9, i32 0, i32 0
  %61 = load ptr, ptr %60, align 8, !tbaa !9
  %62 = getelementptr inbounds i8, ptr %61, i64 3
  %63 = load i8, ptr %62, align 1, !tbaa !15
  store i8 %63, ptr %8, align 1, !tbaa !15
  %64 = load i8, ptr %4, align 1, !tbaa !15
  %65 = zext i8 %64 to i32
  %66 = and i32 %65, 7
  %67 = shl i32 %66, 18
  %68 = load i8, ptr %6, align 1, !tbaa !15
  %69 = zext i8 %68 to i32
  %70 = and i32 %69, 63
  %71 = shl i32 %70, 12
  %72 = or i32 %67, %71
  %73 = load i8, ptr %7, align 1, !tbaa !15
  %74 = zext i8 %73 to i32
  %75 = and i32 %74, 63
  %76 = shl i32 %75, 6
  %77 = or i32 %72, %76
  %78 = load i8, ptr %8, align 1, !tbaa !15
  %79 = zext i8 %78 to i32
  %80 = and i32 %79, 63
  %81 = or i32 %77, %80
  store i32 %81, ptr %2, align 4
  store i32 1, ptr %5, align 4
  call void @llvm.lifetime.end.p0(i64 1, ptr %8) #15
  br label %82

82:                                               ; preds = %59, %45
  call void @llvm.lifetime.end.p0(i64 1, ptr %7) #15
  br label %83

83:                                               ; preds = %82, %28
  call void @llvm.lifetime.end.p0(i64 1, ptr %6) #15
  br label %84

84:                                               ; preds = %83, %17
  call void @llvm.lifetime.end.p0(i64 1, ptr %4) #15
  %85 = load i32, ptr %2, align 4
  ret i32 %85
}