; Function Attrs: mustprogress nofree norecurse nosync nounwind willreturn memory(read, inaccessiblemem: none) uwtable
define dso_local noundef range(i32 0, 2097152) i32 @_ZNK4i18n12phonenumbers11UnicodeText14const_iteratordeEv(ptr noundef nonnull readonly align 8 captures(none) dereferenceable(8) %0) local_unnamed_addr #0 align 2 {
  %2 = load ptr, ptr %0, align 8, !tbaa !4
  %3 = load i8, ptr %2, align 1, !tbaa !10
  %4 = zext i8 %3 to i32
  %5 = icmp sgt i8 %3, -1
  br i1 %5, label %46, label %6

6:                                                ; preds = %1
  %7 = getelementptr inbounds nuw i8, ptr %2, i64 1
  %8 = load i8, ptr %7, align 1, !tbaa !10
  %9 = icmp samesign ult i8 %3, -32
  br i1 %9, label %10, label %16

10:                                               ; preds = %6
  %11 = shl nuw nsw i32 %4, 6
  %12 = and i32 %11, 1984
  %13 = and i8 %8, 63
  %14 = zext nneg i8 %13 to i32
  %15 = or disjoint i32 %12, %14
  br label %46

16:                                               ; preds = %6
  %17 = getelementptr inbounds nuw i8, ptr %2, i64 2
  %18 = load i8, ptr %17, align 1, !tbaa !10
  %19 = icmp samesign ult i8 %3, -16
  br i1 %19, label %20, label %30

20:                                               ; preds = %16
  %21 = shl nuw nsw i32 %4, 12
  %22 = and i32 %21, 61440
  %23 = and i8 %8, 63
  %24 = zext nneg i8 %23 to i32
  %25 = shl nuw nsw i32 %24, 6
  %26 = or disjoint i32 %25, %22
  %27 = and i8 %18, 63
  %28 = zext nneg i8 %27 to i32
  %29 = or disjoint i32 %26, %28
  br label %46

30:                                               ; preds = %16
  %31 = getelementptr inbounds nuw i8, ptr %2, i64 3
  %32 = load i8, ptr %31, align 1, !tbaa !10
  %33 = shl nuw nsw i32 %4, 18
  %34 = and i32 %33, 1835008
  %35 = and i8 %8, 63
  %36 = zext nneg i8 %35 to i32
  %37 = shl nuw nsw i32 %36, 12
  %38 = or disjoint i32 %37, %34
  %39 = and i8 %18, 63
  %40 = zext nneg i8 %39 to i32
  %41 = shl nuw nsw i32 %40, 6
  %42 = or disjoint i32 %41, %38
  %43 = and i8 %32, 63
  %44 = zext nneg i8 %43 to i32
  %45 = or disjoint i32 %42, %44
  br label %46

46:                                               ; preds = %10, %30, %20, %1
  %.0 = phi i32 [ %4, %1 ], [ %15, %10 ], [ %29, %20 ], [ %45, %30 ]
  ret i32 %.0
}